#include <math.h>
#include <stdio.h>
#include <stdlib.h>
#include <string.h>

int main()
{
	int year,month,day;
	int Sn=0;
	int i=0;
	scanf("%d%d%d",&year,&month,&day);
	if(year%4==0&&year%100!=0||year%400==0)
	{
		int months[12]={31,29,31,30,31,30,31,31,30,31,30,31};
		while(i<month-1)
		{
			Sn=Sn+months[i];
			i++;
		}
		Sn=Sn+day;
	}
	else
	{
		int months[12]={31,28,31,30,31,30,31,31,30,31,30,31};
		while(i<month-1)
		{
			Sn=Sn+months[i];
			i++;
		}
		Sn=Sn+day;
	}
	printf("%d",Sn);




	return 0;
}